target datalayout = "e-m:e-p270:32:32-p271:32:32-p272:64:64-i64:64-i128:128-f80:128-n8:16:32:64-S128"
target triple = "x86_64-pc-linux-gnu"

%struct.erf_meta_tag = type { i16, i16, ptr }
%struct.erf_meta_section = type { i16, i16, i16, ptr }

; Function Attrs: null_pointer_is_valid sspstrong uwtable
define internal void @erf_meta_tag_free(ptr noundef %0) #0 {
  %2 = alloca ptr, align 8
  %3 = alloca ptr, align 8
  store ptr %0, ptr %2, align 8
  call void @llvm.lifetime.start.p0(i64 8, ptr %3) #16
  %4 = load ptr, ptr %2, align 8
  store ptr %4, ptr %3, align 8
  %5 = load ptr, ptr %3, align 8
  %6 = icmp ne ptr %5, null
  br i1 %6, label %7, label %13

7:                                                ; preds = %1
  %8 = load ptr, ptr %3, align 8
  %9 = getelementptr inbounds nuw %struct.erf_meta_tag, ptr %8, i32 0, i32 2
  %10 = load ptr, ptr %9, align 8
  call void @g_free(ptr noundef %10)
  %11 = load ptr, ptr %3, align 8
  %12 = getelementptr inbounds nuw %struct.erf_meta_tag, ptr %11, i32 0, i32 2
  store ptr null, ptr %12, align 8
  br label %13

13:                                               ; preds = %7, %1
  %14 = load ptr, ptr %3, align 8
  call void @g_free(ptr noundef %14)
  call void @llvm.lifetime.end.p0(i64 8, ptr %3) #16
  ret void
}

; Function Attrs: null_pointer_is_valid sspstrong uwtable
define internal zeroext i1 @erf_write_wtap_option_to_host_tag(ptr noundef %0, i32 noundef %1, i32 noundef %2, ptr noundef %3, ptr noundef %4) #0 {
  %6 = alloca ptr, align 8
  %7 = alloca i32, align 4
  %8 = alloca i32, align 4
  %9 = alloca ptr, align 8
  %10 = alloca ptr, align 8
  %11 = alloca ptr, align 8
  %12 = alloca ptr, align 8
  %13 = alloca i64, align 8
  %14 = alloca i64, align 8
  %15 = alloca ptr, align 8
  %16 = alloca ptr, align 8
  store ptr %0, ptr %6, align 8
  store i32 %1, ptr %7, align 4
  store i32 %2, ptr %8, align 4
  store ptr %3, ptr %9, align 8
  store ptr %4, ptr %10, align 8
  call void @llvm.lifetime.start.p0(i64 8, ptr %11) #16
  %17 = load ptr, ptr %10, align 8
  store ptr %17, ptr %11, align 8
  call void @llvm.lifetime.start.p0(i64 8, ptr %12) #16
  store ptr null, ptr %12, align 8
  call void @llvm.lifetime.start.p0(i64 8, ptr %13) #16
  store i64 1, ptr %13, align 8
  call void @llvm.lifetime.start.p0(i64 8, ptr %14) #16
  store i64 16, ptr %14, align 8
  call void @llvm.lifetime.start.p0(i64 8, ptr %15) #16
  %18 = load i64, ptr %14, align 8
  %19 = icmp eq i64 %18, 1
  br i1 %19, label %20, label %23

20:                                               ; preds = %5
  %21 = load i64, ptr %13, align 8
  %22 = call noalias ptr @g_malloc0(i64 noundef %21) #17
  store ptr %22, ptr %15, align 8
  br label %44

23:                                               ; preds = %5
  %24 = load i64, ptr %13, align 8
  %25 = call i1 @llvm.is.constant.i64(i64 %24)
  br i1 %25, label %26, label %39

26:                                               ; preds = %23
  %27 = load i64, ptr %14, align 8
  %28 = icmp eq i64 %27, 0
  br i1 %28, label %34, label %29

29:                                               ; preds = %26
  %30 = load i64, ptr %13, align 8
  %31 = load i64, ptr %14, align 8
  %32 = udiv i64 -1, %31
  %33 = icmp ule i64 %30, %32
  br i1 %33, label %34, label %39

34:                                               ; preds = %29, %26
  %35 = load i64, ptr %13, align 8
  %36 = load i64, ptr %14, align 8
  %37 = mul i64 %35, %36
  %38 = call noalias ptr @g_malloc0(i64 noundef %37) #17
  store ptr %38, ptr %15, align 8
  br label %43

39:                                               ; preds = %29, %23
  %40 = load i64, ptr %13, align 8
  %41 = load i64, ptr %14, align 8
  %42 = call noalias ptr @g_malloc0_n(i64 noundef %40, i64 noundef %41) #18
  store ptr %42, ptr %15, align 8
  br label %43

43:                                               ; preds = %39, %34
  br label %44

44:                                               ; preds = %43, %20
  %45 = load ptr, ptr %15, align 8
  store ptr %45, ptr %16, align 8
  call void @llvm.lifetime.end.p0(i64 8, ptr %15) #16
  call void @llvm.lifetime.end.p0(i64 8, ptr %14) #16
  call void @llvm.lifetime.end.p0(i64 8, ptr %13) #16
  %46 = load ptr, ptr %16, align 8
  store ptr %46, ptr %12, align 8
  %47 = load i32, ptr %7, align 4
  switch i32 %47, label %78 [
    i32 2, label %48
    i32 3, label %63
  ]

48:                                               ; preds = %44
  %49 = load ptr, ptr %12, align 8
  %50 = getelementptr inbounds nuw %struct.erf_meta_tag, ptr %49, i32 0, i32 0
  store i16 49, ptr %50, align 8
  %51 = load ptr, ptr %9, align 8
  %52 = load ptr, ptr %51, align 8
  %53 = call noalias ptr @g_strdup(ptr noundef %52)
  %54 = load ptr, ptr %12, align 8
  %55 = getelementptr inbounds nuw %struct.erf_meta_tag, ptr %54, i32 0, i32 2
  store ptr %53, ptr %55, align 8
  %56 = load ptr, ptr %12, align 8
  %57 = getelementptr inbounds nuw %struct.erf_meta_tag, ptr %56, i32 0, i32 2
  %58 = load ptr, ptr %57, align 8
  %59 = call i64 @strlen(ptr noundef %58) #21
  %60 = trunc i64 %59 to i16
  %61 = load ptr, ptr %12, align 8
  %62 = getelementptr inbounds nuw %struct.erf_meta_tag, ptr %61, i32 0, i32 1
  store i16 %60, ptr %62, align 2
  br label %80

63:                                               ; preds = %44
  %64 = load ptr, ptr %12, align 8
  %65 = getelementptr inbounds nuw %struct.erf_meta_tag, ptr %64, i32 0, i32 0
  store i16 17, ptr %65, align 8
  %66 = load ptr, ptr %9, align 8
  %67 = load ptr, ptr %66, align 8
  %68 = call noalias ptr @g_strdup(ptr noundef %67)
  %69 = load ptr, ptr %12, align 8
  %70 = getelementptr inbounds nuw %struct.erf_meta_tag, ptr %69, i32 0, i32 2
  store ptr %68, ptr %70, align 8
  %71 = load ptr, ptr %12, align 8
  %72 = getelementptr inbounds nuw %struct.erf_meta_tag, ptr %71, i32 0, i32 2
  %73 = load ptr, ptr %72, align 8
  %74 = call i64 @strlen(ptr noundef %73) #21
  %75 = trunc i64 %74 to i16
  %76 = load ptr, ptr %12, align 8
  %77 = getelementptr inbounds nuw %struct.erf_meta_tag, ptr %76, i32 0, i32 1
  store i16 %75, ptr %77, align 2
  br label %80

78:                                               ; preds = %44
  %79 = load ptr, ptr %12, align 8
  call void @erf_meta_tag_free(ptr noundef %79)
  store ptr null, ptr %12, align 8
  br label %80

80:                                               ; preds = %78, %63, %48
  %81 = load ptr, ptr %12, align 8
  %82 = icmp ne ptr %81, null
  br i1 %82, label %83, label %88

83:                                               ; preds = %80
  %84 = load ptr, ptr %11, align 8
  %85 = getelementptr inbounds nuw %struct.erf_meta_section, ptr %84, i32 0, i32 3
  %86 = load ptr, ptr %85, align 8
  %87 = load ptr, ptr %12, align 8
  call void @g_ptr_array_add(ptr noundef %86, ptr noundef %87)
  br label %88

88:                                               ; preds = %83, %80
  call void @llvm.lifetime.end.p0(i64 8, ptr %12) #16
  call void @llvm.lifetime.end.p0(i64 8, ptr %11) #16
  ret i1 true
}