; Function Attrs: null_pointer_is_valid sspstrong uwtable
define internal noundef zeroext i1 @erf_write_wtap_option_to_host_tag(ptr readnone captures(none) %0, i32 noundef %1, i32 %2, ptr noundef readonly captures(none) %3, ptr noundef readonly captures(none) %4) #0 {
  %6 = tail call noalias dereferenceable_or_null(16) ptr @g_malloc0(i64 noundef 16) #15
  switch i32 %1, label %8 [
    i32 2, label %12
    i32 3, label %7
  ]

7:                                                ; preds = %5
  br label %12

8:                                                ; preds = %5
  %.not.i = icmp eq ptr %6, null
  br i1 %.not.i, label %.thread, label %9

9:                                                ; preds = %8
  %10 = getelementptr inbounds nuw i8, ptr %6, i64 8
  %11 = load ptr, ptr %10, align 8
  tail call void @g_free(ptr noundef %11)
  store ptr null, ptr %10, align 8
  br label %.thread

.thread:                                          ; preds = %9, %8
  tail call void @g_free(ptr noundef %6)
  br label %22

12:                                               ; preds = %5, %7
  %.sink = phi i16 [ 17, %7 ], [ 49, %5 ]
  store i16 %.sink, ptr %6, align 8
  %13 = load ptr, ptr %3, align 8
  %14 = tail call noalias ptr @g_strdup(ptr noundef %13)
  %15 = getelementptr inbounds nuw i8, ptr %6, i64 8
  store ptr %14, ptr %15, align 8
  %16 = tail call i64 @strlen(ptr noundef %14) #17
  %17 = trunc i64 %16 to i16
  %18 = getelementptr inbounds nuw i8, ptr %6, i64 2
  store i16 %17, ptr %18, align 2
  %.not = icmp eq ptr %6, null
  br i1 %.not, label %22, label %19

19:                                               ; preds = %12
  %20 = getelementptr inbounds nuw i8, ptr %4, i64 8
  %21 = load ptr, ptr %20, align 8
  tail call void @g_ptr_array_add(ptr noundef %21, ptr noundef nonnull %6)
  br label %22

22:                                               ; preds = %.thread, %19, %12
  ret i1 true
}